; Function Attrs: nounwind uwtable
define ptr @H5HL__dblk_new(ptr noundef %0) local_unnamed_addr #0 {
  %2 = tail call noalias ptr @H5FL_reg_calloc(ptr noundef nonnull @H5_H5HL_dblk_t_reg_free_list) #2
  %3 = icmp eq ptr %2, null
  br i1 %3, label %4, label %8

4:                                                ; preds = %1
  %5 = load i64, ptr @H5E_HEAP_g, align 8
  %6 = load i64, ptr @H5E_CANTALLOC_g, align 8
  %7 = tail call i32 (ptr, ptr, i32, i64, i64, ptr, ...) @H5E_printf_stack(ptr noundef nonnull @.str, ptr noundef nonnull @__func__.H5HL__dblk_new, i32 noundef 91, i64 noundef %5, i64 noundef %6, ptr noundef nonnull @.str.1) #2
  br label %.thread

8:                                                ; preds = %1
  %9 = tail call i32 @H5HL__inc_rc(ptr noundef %0) #2
  %10 = icmp eq i32 %9, -1
  br i1 %10, label %14, label %11

11:                                               ; preds = %8
  %12 = getelementptr inbounds i8, ptr %2, i64 248
  store ptr %0, ptr %12, align 8
  %13 = getelementptr inbounds i8, ptr %0, i64 80
  store ptr %2, ptr %13, align 8
  br label %.thread

14:                                               ; preds = %8
  %15 = load i64, ptr @H5E_HEAP_g, align 8
  %16 = load i64, ptr @H5E_CANTINC_g, align 8
  %17 = tail call i32 (ptr, ptr, i32, i64, i64, ptr, ...) @H5E_printf_stack(ptr noundef nonnull @.str, ptr noundef nonnull @__func__.H5HL__dblk_new, i32 noundef 95, i64 noundef %15, i64 noundef %16, ptr noundef nonnull @.str.2) #2
  %18 = tail call ptr @H5FL_reg_free(ptr noundef nonnull @H5_H5HL_dblk_t_reg_free_list, ptr noundef nonnull %2) #2
  br label %.thread

.thread:                                          ; preds = %4, %11, %14
  %.015 = phi ptr [ null, %14 ], [ %2, %11 ], [ null, %4 ]
  ret ptr %.015
}